target datalayout = "e-m:e-p270:32:32-p271:32:32-p272:64:64-i64:64-i128:128-f80:128-n8:16:32:64-S128"
target triple = "x86_64-pc-linux-gnu"

; Function Attrs: nounwind uwtable
define i32 @uri_TESTING_ONLY_ParseIpFourA(ptr noundef %0) #0 {
  %2 = alloca ptr, align 8
  %3 = alloca [4 x i8], align 1
  %4 = alloca i32, align 4
  store ptr %0, ptr %2, align 8, !tbaa !8
  call void @llvm.lifetime.start.p0(i64 4, ptr %3) #7
  call void @llvm.lifetime.start.p0(i64 4, ptr %4) #7
  %5 = getelementptr inbounds [4 x i8], ptr %3, i64 0, i64 0
  %6 = load ptr, ptr %2, align 8, !tbaa !8
  %7 = load ptr, ptr %2, align 8, !tbaa !8
  %8 = load ptr, ptr %2, align 8, !tbaa !8
  %9 = call i64 @strlen(ptr noundef %8) #8
  %10 = getelementptr inbounds nuw i8, ptr %7, i64 %9
  %11 = call i32 @uriParseIpFourAddressA(ptr noundef %5, ptr noundef %6, ptr noundef %10)
  store i32 %11, ptr %4, align 4, !tbaa !21
  %12 = load i32, ptr %4, align 4, !tbaa !21
  %13 = icmp eq i32 %12, 0
  %14 = select i1 %13, i32 1, i32 0
  call void @llvm.lifetime.end.p0(i64 4, ptr %4) #7
  call void @llvm.lifetime.end.p0(i64 4, ptr %3) #7
  ret i32 %14
}